
test.elf:     file format elf32-littleriscv


Disassembly of section .text:

00000000 <_start>:
   0:	7fc00113          	li	x2,2044
   4:	35c000ef          	jal	x1,360 <main>
   8:	00100073          	ebreak

0000000c <putchar>:
   c:	fe010113          	addi	x2,x2,-32
  10:	00812e23          	sw	x8,28(x2)
  14:	02010413          	addi	x8,x2,32
  18:	fea42623          	sw	x10,-20(x8)
  1c:	00000013          	nop
  20:	49002783          	lw	x15,1168(x0) # 490 <uart_write_reg>
  24:	0007a783          	lw	x15,0(x15)
  28:	fe079ce3          	bnez	x15,20 <putchar+0x14>
  2c:	49002783          	lw	x15,1168(x0) # 490 <uart_write_reg>
  30:	fec42703          	lw	x14,-20(x8)
  34:	00e7a023          	sw	x14,0(x15)
  38:	00000013          	nop
  3c:	01c12403          	lw	x8,28(x2)
  40:	02010113          	addi	x2,x2,32
  44:	00008067          	ret

00000048 <puts>:
  48:	fd010113          	addi	x2,x2,-48
  4c:	02112623          	sw	x1,44(x2)
  50:	02812423          	sw	x8,40(x2)
  54:	03010413          	addi	x8,x2,48
  58:	fca42e23          	sw	x10,-36(x8)
  5c:	0100006f          	j	6c <puts+0x24>
  60:	fef44783          	lbu	x15,-17(x8)
  64:	00078513          	mv	x10,x15
  68:	fa5ff0ef          	jal	x1,c <putchar>
  6c:	fdc42783          	lw	x15,-36(x8)
  70:	00178713          	addi	x14,x15,1
  74:	fce42e23          	sw	x14,-36(x8)
  78:	0007c783          	lbu	x15,0(x15)
  7c:	fef407a3          	sb	x15,-17(x8)
  80:	fef44783          	lbu	x15,-17(x8)
  84:	fc079ee3          	bnez	x15,60 <puts+0x18>
  88:	00000013          	nop
  8c:	00000013          	nop
  90:	02c12083          	lw	x1,44(x2)
  94:	02812403          	lw	x8,40(x2)
  98:	03010113          	addi	x2,x2,48
  9c:	00008067          	ret

000000a0 <print_uint>:
  a0:	fd010113          	addi	x2,x2,-48
  a4:	02112623          	sw	x1,44(x2)
  a8:	02812423          	sw	x8,40(x2)
  ac:	03010413          	addi	x8,x2,48
  b0:	fca42e23          	sw	x10,-36(x8)
  b4:	fe040793          	addi	x15,x8,-32
  b8:	fef42623          	sw	x15,-20(x8)
  bc:	fdc42783          	lw	x15,-36(x8)
  c0:	00a00593          	li	x11,10
  c4:	00078513          	mv	x10,x15
  c8:	35c000ef          	jal	x1,424 <__umodsi3>
  cc:	00050793          	mv	x15,x10
  d0:	0ff7f793          	andi	x15,x15,255
  d4:	03078793          	addi	x15,x15,48
  d8:	0ff7f713          	andi	x14,x15,255
  dc:	fec42783          	lw	x15,-20(x8)
  e0:	00e78023          	sb	x14,0(x15)
  e4:	fdc42783          	lw	x15,-36(x8)
  e8:	00a00593          	li	x11,10
  ec:	00078513          	mv	x10,x15
  f0:	2ec000ef          	jal	x1,3dc <__udivsi3>
  f4:	00050793          	mv	x15,x10
  f8:	fcf42e23          	sw	x15,-36(x8)
  fc:	fdc42783          	lw	x15,-36(x8)
 100:	00078a63          	beqz	x15,114 <print_uint+0x74>
 104:	fec42783          	lw	x15,-20(x8)
 108:	00178793          	addi	x15,x15,1
 10c:	fef42623          	sw	x15,-20(x8)
 110:	fadff06f          	j	bc <print_uint+0x1c>
 114:	00000013          	nop
 118:	01c0006f          	j	134 <print_uint+0x94>
 11c:	fec42783          	lw	x15,-20(x8)
 120:	fff78713          	addi	x14,x15,-1
 124:	fee42623          	sw	x14,-20(x8)
 128:	0007c783          	lbu	x15,0(x15)
 12c:	00078513          	mv	x10,x15
 130:	eddff0ef          	jal	x1,c <putchar>
 134:	fe040793          	addi	x15,x8,-32
 138:	fec42703          	lw	x14,-20(x8)
 13c:	fef770e3          	bgeu	x14,x15,11c <print_uint+0x7c>
 140:	00000013          	nop
 144:	00000013          	nop
 148:	02c12083          	lw	x1,44(x2)
 14c:	02812403          	lw	x8,40(x2)
 150:	03010113          	addi	x2,x2,48
 154:	00008067          	ret

00000158 <printf>:
 158:	fb010113          	addi	x2,x2,-80
 15c:	02112623          	sw	x1,44(x2)
 160:	02812423          	sw	x8,40(x2)
 164:	03010413          	addi	x8,x2,48
 168:	fca42e23          	sw	x10,-36(x8)
 16c:	00b42223          	sw	x11,4(x8)
 170:	00c42423          	sw	x12,8(x8)
 174:	00d42623          	sw	x13,12(x8)
 178:	00e42823          	sw	x14,16(x8)
 17c:	00f42a23          	sw	x15,20(x8)
 180:	01042c23          	sw	x16,24(x8)
 184:	01142e23          	sw	x17,28(x8)
 188:	02040793          	addi	x15,x8,32
 18c:	fcf42c23          	sw	x15,-40(x8)
 190:	fd842783          	lw	x15,-40(x8)
 194:	fe478793          	addi	x15,x15,-28
 198:	fef42023          	sw	x15,-32(x8)
 19c:	fdc42783          	lw	x15,-36(x8)
 1a0:	fef42623          	sw	x15,-20(x8)
 1a4:	0cc0006f          	j	270 <printf+0x118>
 1a8:	fec42783          	lw	x15,-20(x8)
 1ac:	0007c703          	lbu	x14,0(x15)
 1b0:	02500793          	li	x15,37
 1b4:	00f70c63          	beq	x14,x15,1cc <printf+0x74>
 1b8:	fec42783          	lw	x15,-20(x8)
 1bc:	0007c783          	lbu	x15,0(x15)
 1c0:	00078513          	mv	x10,x15
 1c4:	e49ff0ef          	jal	x1,c <putchar>
 1c8:	09c0006f          	j	264 <printf+0x10c>
 1cc:	fec42783          	lw	x15,-20(x8)
 1d0:	00178793          	addi	x15,x15,1
 1d4:	fef42623          	sw	x15,-20(x8)
 1d8:	fec42783          	lw	x15,-20(x8)
 1dc:	0007c783          	lbu	x15,0(x15)
 1e0:	07300713          	li	x14,115
 1e4:	04e78063          	beq	x15,x14,224 <printf+0xcc>
 1e8:	07300713          	li	x14,115
 1ec:	06f74c63          	blt	x14,x15,264 <printf+0x10c>
 1f0:	06300713          	li	x14,99
 1f4:	04e78863          	beq	x15,x14,244 <printf+0xec>
 1f8:	06400713          	li	x14,100
 1fc:	06e79463          	bne	x15,x14,264 <printf+0x10c>
 200:	fe042783          	lw	x15,-32(x8)
 204:	00478713          	addi	x14,x15,4
 208:	fee42023          	sw	x14,-32(x8)
 20c:	0007a783          	lw	x15,0(x15)
 210:	fef42223          	sw	x15,-28(x8)
 214:	fe442783          	lw	x15,-28(x8)
 218:	00078513          	mv	x10,x15
 21c:	e85ff0ef          	jal	x1,a0 <print_uint>
 220:	0440006f          	j	264 <printf+0x10c>
 224:	fe042783          	lw	x15,-32(x8)
 228:	00478713          	addi	x14,x15,4
 22c:	fee42023          	sw	x14,-32(x8)
 230:	0007a783          	lw	x15,0(x15)
 234:	fef42423          	sw	x15,-24(x8)
 238:	fe842503          	lw	x10,-24(x8)
 23c:	e0dff0ef          	jal	x1,48 <puts>
 240:	0240006f          	j	264 <printf+0x10c>
 244:	fe042783          	lw	x15,-32(x8)
 248:	00478713          	addi	x14,x15,4
 24c:	fee42023          	sw	x14,-32(x8)
 250:	0007a783          	lw	x15,0(x15)
 254:	fef42223          	sw	x15,-28(x8)
 258:	fe442503          	lw	x10,-28(x8)
 25c:	db1ff0ef          	jal	x1,c <putchar>
 260:	00000013          	nop
 264:	fec42783          	lw	x15,-20(x8)
 268:	00178793          	addi	x15,x15,1
 26c:	fef42623          	sw	x15,-20(x8)
 270:	fec42783          	lw	x15,-20(x8)
 274:	0007c783          	lbu	x15,0(x15)
 278:	f20798e3          	bnez	x15,1a8 <printf+0x50>
 27c:	00000013          	nop
 280:	00000013          	nop
 284:	02c12083          	lw	x1,44(x2)
 288:	02812403          	lw	x8,40(x2)
 28c:	05010113          	addi	x2,x2,80
 290:	00008067          	ret

00000294 <malloc>:
 294:	fd010113          	addi	x2,x2,-48
 298:	02812623          	sw	x8,44(x2)
 29c:	03010413          	addi	x8,x2,48
 2a0:	fca42e23          	sw	x10,-36(x8)
 2a4:	51c00713          	li	x14,1308
 2a8:	49802783          	lw	x15,1176(x0) # 498 <allocp>
 2ac:	40f707b3          	sub	x15,x14,x15
 2b0:	fdc42703          	lw	x14,-36(x8)
 2b4:	02e7c263          	blt	x15,x14,2d8 <malloc+0x44>
 2b8:	49802783          	lw	x15,1176(x0) # 498 <allocp>
 2bc:	fef42623          	sw	x15,-20(x8)
 2c0:	49802703          	lw	x14,1176(x0) # 498 <allocp>
 2c4:	fdc42783          	lw	x15,-36(x8)
 2c8:	00f70733          	add	x14,x14,x15
 2cc:	48e02c23          	sw	x14,1176(x0) # 498 <allocp>
 2d0:	fec42783          	lw	x15,-20(x8)
 2d4:	0080006f          	j	2dc <malloc+0x48>
 2d8:	00000793          	li	x15,0
 2dc:	00078513          	mv	x10,x15
 2e0:	02c12403          	lw	x8,44(x2)
 2e4:	03010113          	addi	x2,x2,48
 2e8:	00008067          	ret

000002ec <time>:
 2ec:	ff010113          	addi	x2,x2,-16
 2f0:	00812623          	sw	x8,12(x2)
 2f4:	01010413          	addi	x8,x2,16
 2f8:	49402783          	lw	x15,1172(x0) # 494 <ms_count_reg>
 2fc:	0007a783          	lw	x15,0(x15)
 300:	00078513          	mv	x10,x15
 304:	00c12403          	lw	x8,12(x2)
 308:	01010113          	addi	x2,x2,16
 30c:	00008067          	ret

00000310 <sleep>:
 310:	fd010113          	addi	x2,x2,-48
 314:	02112623          	sw	x1,44(x2)
 318:	02812423          	sw	x8,40(x2)
 31c:	03010413          	addi	x8,x2,48
 320:	fca42e23          	sw	x10,-36(x8)
 324:	fc9ff0ef          	jal	x1,2ec <time>
 328:	fea42623          	sw	x10,-20(x8)
 32c:	00000013          	nop
 330:	fbdff0ef          	jal	x1,2ec <time>
 334:	00050713          	mv	x14,x10
 338:	fec42783          	lw	x15,-20(x8)
 33c:	40f707b3          	sub	x15,x14,x15
 340:	fdc42703          	lw	x14,-36(x8)
 344:	fee7e6e3          	bltu	x15,x14,330 <sleep+0x20>
 348:	00000013          	nop
 34c:	00000013          	nop
 350:	02c12083          	lw	x1,44(x2)
 354:	02812403          	lw	x8,40(x2)
 358:	03010113          	addi	x2,x2,48
 35c:	00008067          	ret

00000360 <main>:
 360:	ff010113          	addi	x2,x2,-16
 364:	00112623          	sw	x1,12(x2)
 368:	00812423          	sw	x8,8(x2)
 36c:	01010413          	addi	x8,x2,16
 370:	f7dff0ef          	jal	x1,2ec <time>
 374:	00050793          	mv	x15,x10
 378:	00078593          	mv	x11,x15
 37c:	48800513          	li	x10,1160
 380:	dd9ff0ef          	jal	x1,158 <printf>
 384:	00a00513          	li	x10,10
 388:	f89ff0ef          	jal	x1,310 <sleep>
 38c:	f61ff0ef          	jal	x1,2ec <time>
 390:	00050793          	mv	x15,x10
 394:	00078593          	mv	x11,x15
 398:	48800513          	li	x10,1160
 39c:	dbdff0ef          	jal	x1,158 <printf>
 3a0:	00a00513          	li	x10,10
 3a4:	f6dff0ef          	jal	x1,310 <sleep>
 3a8:	f45ff0ef          	jal	x1,2ec <time>
 3ac:	00050793          	mv	x15,x10
 3b0:	00078593          	mv	x11,x15
 3b4:	48c00513          	li	x10,1164
 3b8:	da1ff0ef          	jal	x1,158 <printf>
 3bc:	00000793          	li	x15,0
 3c0:	00078513          	mv	x10,x15
 3c4:	00c12083          	lw	x1,12(x2)
 3c8:	00812403          	lw	x8,8(x2)
 3cc:	01010113          	addi	x2,x2,16
 3d0:	00008067          	ret

000003d4 <__divsi3>:
 3d4:	06054063          	bltz	x10,434 <__umodsi3+0x10>
 3d8:	0605c663          	bltz	x11,444 <__umodsi3+0x20>

000003dc <__udivsi3>:
 3dc:	00058613          	mv	x12,x11
 3e0:	00050593          	mv	x11,x10
 3e4:	fff00513          	li	x10,-1
 3e8:	02060c63          	beqz	x12,420 <__udivsi3+0x44>
 3ec:	00100693          	li	x13,1
 3f0:	00b67a63          	bgeu	x12,x11,404 <__udivsi3+0x28>
 3f4:	00c05863          	blez	x12,404 <__udivsi3+0x28>
 3f8:	00161613          	slli	x12,x12,0x1
 3fc:	00169693          	slli	x13,x13,0x1
 400:	feb66ae3          	bltu	x12,x11,3f4 <__udivsi3+0x18>
 404:	00000513          	li	x10,0
 408:	00c5e663          	bltu	x11,x12,414 <__udivsi3+0x38>
 40c:	40c585b3          	sub	x11,x11,x12
 410:	00d56533          	or	x10,x10,x13
 414:	0016d693          	srli	x13,x13,0x1
 418:	00165613          	srli	x12,x12,0x1
 41c:	fe0696e3          	bnez	x13,408 <__udivsi3+0x2c>
 420:	00008067          	ret

00000424 <__umodsi3>:
 424:	00008293          	mv	x5,x1
 428:	fb5ff0ef          	jal	x1,3dc <__udivsi3>
 42c:	00058513          	mv	x10,x11
 430:	00028067          	jr	x5
 434:	40a00533          	neg	x10,x10
 438:	00b04863          	bgtz	x11,448 <__umodsi3+0x24>
 43c:	40b005b3          	neg	x11,x11
 440:	f9dff06f          	j	3dc <__udivsi3>
 444:	40b005b3          	neg	x11,x11
 448:	00008293          	mv	x5,x1
 44c:	f91ff0ef          	jal	x1,3dc <__udivsi3>
 450:	40a00533          	neg	x10,x10
 454:	00028067          	jr	x5

00000458 <__modsi3>:
 458:	00008293          	mv	x5,x1
 45c:	0005ca63          	bltz	x11,470 <__modsi3+0x18>
 460:	00054c63          	bltz	x10,478 <__modsi3+0x20>
 464:	f79ff0ef          	jal	x1,3dc <__udivsi3>
 468:	00058513          	mv	x10,x11
 46c:	00028067          	jr	x5
 470:	40b005b3          	neg	x11,x11
 474:	fe0558e3          	bgez	x10,464 <__modsi3+0xc>
 478:	40a00533          	neg	x10,x10
 47c:	f61ff0ef          	jal	x1,3dc <__udivsi3>
 480:	40b00533          	neg	x10,x11
 484:	00028067          	jr	x5

Disassembly of section .rodata:

00000488 <.rodata>:
 488:	6425                	lui	x8,0x9
 48a:	000a                	c.slli	x0,0x2
 48c:	6425                	lui	x8,0x9
	...

Disassembly of section .sdata:

00000490 <uart_write_reg>:
 490:	0000                	unimp
 492:	0001                	nop

00000494 <ms_count_reg>:
 494:	0008                	0x8
 496:	0001                	nop

00000498 <allocp>:
 498:	049c                	addi	x15,x2,576
	...

Disassembly of section .bss:

0000049c <allocbuf>:
	...

Disassembly of section .riscv.attributes:

00000000 <.riscv.attributes>:
   0:	1b41                	addi	x22,x22,-16
   2:	0000                	unimp
   4:	7200                	flw	f8,32(x12)
   6:	7369                	lui	x6,0xffffa
   8:	01007663          	bgeu	x0,x16,14 <putchar+0x8>
   c:	0011                	c.nop	4
   e:	0000                	unimp
  10:	1004                	addi	x9,x2,32
  12:	7205                	lui	x4,0xfffe1
  14:	3376                	fld	f6,376(x2)
  16:	6932                	flw	f18,12(x2)
  18:	7032                	flw	f0,44(x2)
  1a:	0030                	addi	x12,x2,8

Disassembly of section .comment:

00000000 <.comment>:
   0:	3a434347          	fmsub.d	f6,f6,f4,f7,rmm
   4:	2820                	fld	f8,80(x8)
   6:	29554e47          	fmsub.s	f28,f10,f21,f5,rmm
   a:	3120                	fld	f8,96(x10)
   c:	2e30                	fld	f12,88(x12)
   e:	2e32                	fld	f28,264(x2)
  10:	0030                	addi	x12,x2,8

Disassembly of section .debug_line:

00000000 <.debug_line>:
   0:	0165                	addi	x2,x2,25
   2:	0000                	unimp
   4:	00460003          	lb	x0,4(x12)
   8:	0000                	unimp
   a:	0101                	addi	x2,x2,0
   c:	000d0efb          	0xd0efb
  10:	0101                	addi	x2,x2,0
  12:	0101                	addi	x2,x2,0
  14:	0000                	unimp
  16:	0100                	addi	x8,x2,128
  18:	0000                	unimp
  1a:	2e01                	jal	32a <sleep+0x1a>
  1c:	2f2e                	fld	f30,200(x2)
  1e:	2e2e                	fld	f28,200(x2)
  20:	2f2e2e2f          	0x2f2e2e2f
  24:	2e2e                	fld	f28,200(x2)
  26:	7369722f          	0x7369722f
  2a:	672d7663          	bgeu	x26,x18,696 <allocbuf+0x1fa>
  2e:	6c2f6363          	bltu	x30,x2,6f4 <allocbuf+0x258>
  32:	6269                	lui	x4,0x1a
  34:	2f636367          	0x2f636367
  38:	666e6f63          	bltu	x28,x6,6b6 <allocbuf+0x21a>
  3c:	6769                	lui	x14,0x1a
  3e:	7369722f          	0x7369722f
  42:	00007663          	bgeu	x0,x0,4e <puts+0x6>
  46:	6964                	flw	f9,84(x10)
  48:	2e76                	fld	f28,344(x2)
  4a:	00010053          	fadd.s	f0,f2,f0,rne
  4e:	0000                	unimp
  50:	0500                	addi	x8,x2,640
  52:	d402                	sw	x0,40(x2)
  54:	03000003          	lb	x0,48(x0) # 30 <putchar+0x24>
  58:	00c4                	addi	x9,x2,68
  5a:	0301                	addi	x6,x6,0
  5c:	0901                	addi	x18,x18,0
  5e:	0004                	0x4
  60:	0301                	addi	x6,x6,0
  62:	0904                	addi	x9,x2,144
  64:	0004                	0x4
  66:	0301                	addi	x6,x6,0
  68:	0901                	addi	x18,x18,0
  6a:	0004                	0x4
  6c:	0301                	addi	x6,x6,0
  6e:	0901                	addi	x18,x18,0
  70:	0004                	0x4
  72:	0301                	addi	x6,x6,0
  74:	0901                	addi	x18,x18,0
  76:	0004                	0x4
  78:	0301                	addi	x6,x6,0
  7a:	0901                	addi	x18,x18,0
  7c:	0004                	0x4
  7e:	0301                	addi	x6,x6,0
  80:	0901                	addi	x18,x18,0
  82:	0004                	0x4
  84:	0301                	addi	x6,x6,0
  86:	0902                	c.slli64	x18
  88:	0004                	0x4
  8a:	0301                	addi	x6,x6,0
  8c:	0901                	addi	x18,x18,0
  8e:	0004                	0x4
  90:	0301                	addi	x6,x6,0
  92:	0901                	addi	x18,x18,0
  94:	0004                	0x4
  96:	0301                	addi	x6,x6,0
  98:	0901                	addi	x18,x18,0
  9a:	0004                	0x4
  9c:	0301                	addi	x6,x6,0
  9e:	0902                	c.slli64	x18
  a0:	0004                	0x4
  a2:	0301                	addi	x6,x6,0
  a4:	0902                	c.slli64	x18
  a6:	0004                	0x4
  a8:	0301                	addi	x6,x6,0
  aa:	0901                	addi	x18,x18,0
  ac:	0004                	0x4
  ae:	0301                	addi	x6,x6,0
  b0:	0901                	addi	x18,x18,0
  b2:	0004                	0x4
  b4:	0301                	addi	x6,x6,0
  b6:	0902                	c.slli64	x18
  b8:	0004                	0x4
  ba:	0301                	addi	x6,x6,0
  bc:	0901                	addi	x18,x18,0
  be:	0004                	0x4
  c0:	0301                	addi	x6,x6,0
  c2:	0901                	addi	x18,x18,0
  c4:	0004                	0x4
  c6:	0301                	addi	x6,x6,0
  c8:	0902                	c.slli64	x18
  ca:	0004                	0x4
  cc:	0301                	addi	x6,x6,0
  ce:	0905                	addi	x18,x18,1
  d0:	0004                	0x4
  d2:	0301                	addi	x6,x6,0
  d4:	0901                	addi	x18,x18,0
  d6:	0004                	0x4
  d8:	0301                	addi	x6,x6,0
  da:	0901                	addi	x18,x18,0
  dc:	0004                	0x4
  de:	0301                	addi	x6,x6,0
  e0:	0901                	addi	x18,x18,0
  e2:	0004                	0x4
  e4:	0301                	addi	x6,x6,0
  e6:	0905                	addi	x18,x18,1
  e8:	0004                	0x4
  ea:	0301                	addi	x6,x6,0
  ec:	0902                	c.slli64	x18
  ee:	0004                	0x4
  f0:	0301                	addi	x6,x6,0
  f2:	0902                	c.slli64	x18
  f4:	0004                	0x4
  f6:	0301                	addi	x6,x6,0
  f8:	0901                	addi	x18,x18,0
  fa:	0004                	0x4
  fc:	0301                	addi	x6,x6,0
  fe:	0902                	c.slli64	x18
 100:	0004                	0x4
 102:	0301                	addi	x6,x6,0
 104:	0902                	c.slli64	x18
 106:	0004                	0x4
 108:	0301                	addi	x6,x6,0
 10a:	0901                	addi	x18,x18,0
 10c:	0004                	0x4
 10e:	0301                	addi	x6,x6,0
 110:	0901                	addi	x18,x18,0
 112:	0004                	0x4
 114:	0301                	addi	x6,x6,0
 116:	0901                	addi	x18,x18,0
 118:	0004                	0x4
 11a:	0301                	addi	x6,x6,0
 11c:	0904                	addi	x9,x2,144
 11e:	0004                	0x4
 120:	0301                	addi	x6,x6,0
 122:	0901                	addi	x18,x18,0
 124:	0004                	0x4
 126:	0301                	addi	x6,x6,0
 128:	0901                	addi	x18,x18,0
 12a:	0004                	0x4
 12c:	0301                	addi	x6,x6,0
 12e:	0902                	c.slli64	x18
 130:	0004                	0x4
 132:	0301                	addi	x6,x6,0
 134:	0901                	addi	x18,x18,0
 136:	0004                	0x4
 138:	0301                	addi	x6,x6,0
 13a:	0901                	addi	x18,x18,0
 13c:	0004                	0x4
 13e:	0301                	addi	x6,x6,0
 140:	0902                	c.slli64	x18
 142:	0004                	0x4
 144:	0301                	addi	x6,x6,0
 146:	0901                	addi	x18,x18,0
 148:	0004                	0x4
 14a:	0301                	addi	x6,x6,0
 14c:	0902                	c.slli64	x18
 14e:	0004                	0x4
 150:	0301                	addi	x6,x6,0
 152:	0901                	addi	x18,x18,0
 154:	0004                	0x4
 156:	0301                	addi	x6,x6,0
 158:	0901                	addi	x18,x18,0
 15a:	0004                	0x4
 15c:	0301                	addi	x6,x6,0
 15e:	0901                	addi	x18,x18,0
 160:	0004                	0x4
 162:	0901                	addi	x18,x18,0
 164:	0004                	0x4
 166:	0100                	addi	x8,x2,128
 168:	01              	Address 0x0000000000000168 is out of bounds.


Disassembly of section .debug_info:

00000000 <.debug_info>:
   0:	0022                	c.slli	x0,0x8
   2:	0000                	unimp
   4:	0002                	c.slli64	x0
   6:	0000                	unimp
   8:	0000                	unimp
   a:	0104                	addi	x9,x2,128
   c:	0000                	unimp
   e:	0000                	unimp
  10:	03d4                	addi	x13,x2,452
  12:	0000                	unimp
  14:	0488                	addi	x10,x2,576
  16:	0000                	unimp
  18:	0000                	unimp
  1a:	0000                	unimp
  1c:	0030                	addi	x12,x2,8
  1e:	0000                	unimp
  20:	0088                	addi	x10,x2,64
  22:	0000                	unimp
  24:	8001                	c.srli64	x8

Disassembly of section .debug_abbrev:

00000000 <.debug_abbrev>:
   0:	1101                	addi	x2,x2,-32
   2:	1000                	addi	x8,x2,32
   4:	1106                	slli	x2,x2,0x21
   6:	1201                	addi	x4,x4,-32
   8:	0301                	addi	x6,x6,0
   a:	1b0e                	slli	x22,x22,0x23
   c:	250e                	fld	f10,192(x2)
   e:	130e                	slli	x6,x6,0x23
  10:	0005                	c.nop	1
	...

Disassembly of section .debug_aranges:

00000000 <.debug_aranges>:
   0:	001c                	0x1c
   2:	0000                	unimp
   4:	0002                	c.slli64	x0
   6:	0000                	unimp
   8:	0000                	unimp
   a:	0004                	0x4
   c:	0000                	unimp
   e:	0000                	unimp
  10:	03d4                	addi	x13,x2,452
  12:	0000                	unimp
  14:	00b4                	addi	x13,x2,72
	...

Disassembly of section .debug_str:

00000000 <.debug_str>:
   0:	2e2e                	fld	f28,200(x2)
   2:	2f2e2e2f          	0x2f2e2e2f
   6:	2e2e                	fld	f28,200(x2)
   8:	2f2e2e2f          	0x2f2e2e2f
   c:	6972                	flw	f18,28(x2)
   e:	2d766373          	csrrsi	x6,0x2d7,12
  12:	2f636367          	0x2f636367
  16:	696c                	flw	f11,84(x10)
  18:	6762                	flw	f14,24(x2)
  1a:	632f6363          	bltu	x30,x18,640 <allocbuf+0x1a4>
  1e:	69666e6f          	jal	x28,666b4 <allocbuf+0x66218>
  22:	69722f67          	0x69722f67
  26:	2f766373          	csrrsi	x6,0x2f7,12
  2a:	6964                	flw	f9,84(x10)
  2c:	2e76                	fld	f28,344(x2)
  2e:	682f0053          	0x682f0053
  32:	2f656d6f          	jal	x26,56328 <allocbuf+0x55e8c>
  36:	6170                	flw	f12,68(x10)
  38:	6c75                	lui	x24,0x1d
  3a:	7369722f          	0x7369722f
  3e:	672d7663          	bgeu	x26,x18,6aa <allocbuf+0x20e>
  42:	756e                	flw	f10,248(x2)
  44:	742d                	lui	x8,0xfffeb
  46:	636c6f6f          	jal	x30,c667c <allocbuf+0xc61e0>
  4a:	6168                	flw	f10,68(x10)
  4c:	6e69                	lui	x28,0x1a
  4e:	6975622f          	0x6975622f
  52:	646c                	flw	f11,76(x8)
  54:	6975622f          	0x6975622f
  58:	646c                	flw	f11,76(x8)
  5a:	672d                	lui	x14,0xb
  5c:	6e2d6363          	bltu	x26,x2,742 <allocbuf+0x2a6>
  60:	7765                	lui	x14,0xffff9
  62:	696c                	flw	f11,84(x10)
  64:	2d62                	fld	f26,24(x2)
  66:	67617473          	csrrci	x8,0x676,2
  6a:	3265                	jal	fffffa12 <allocbuf+0xfffff576>
  6c:	7369722f          	0x7369722f
  70:	32337663          	bgeu	x6,x3,39c <main+0x3c>
  74:	752d                	lui	x10,0xfffeb
  76:	6b6e                	flw	f22,216(x2)
  78:	6f6e                	flw	f30,216(x2)
  7a:	652d6e77          	0x652d6e77
  7e:	666c                	flw	f11,76(x12)
  80:	62696c2f          	0x62696c2f
  84:	00636367          	0x636367
  88:	20554e47          	fmsub.s	f28,f10,f5,f4,rmm
  8c:	5341                	li	x6,-16
  8e:	3220                	fld	f8,96(x12)
  90:	332e                	fld	f6,232(x2)
  92:	0035                	c.nop	13
