
test.elf:     file format elf32-littleriscv


Disassembly of section .text:

00000000 <_start>:
   0:	7fc00113          	li	x2,2044
   4:	35c000ef          	jal	x1,360 <main>
   8:	00100073          	ebreak

0000000c <putchar>:
   c:	fe010113          	addi	x2,x2,-32
  10:	00812e23          	sw	x8,28(x2)
  14:	02010413          	addi	x8,x2,32
  18:	fea42623          	sw	x10,-20(x8)
  1c:	00000013          	nop
  20:	49002783          	lw	x15,1168(x0) # 490 <uart_write_reg>
  24:	0007a783          	lw	x15,0(x15)
  28:	fe079ce3          	bnez	x15,20 <putchar+0x14>
  2c:	49002783          	lw	x15,1168(x0) # 490 <uart_write_reg>
  30:	fec42703          	lw	x14,-20(x8)
  34:	00e7a023          	sw	x14,0(x15)
  38:	00000013          	nop
  3c:	01c12403          	lw	x8,28(x2)
  40:	02010113          	addi	x2,x2,32
  44:	00008067          	ret

00000048 <puts>:
  48:	fd010113          	addi	x2,x2,-48
  4c:	02112623          	sw	x1,44(x2)
  50:	02812423          	sw	x8,40(x2)
  54:	03010413          	addi	x8,x2,48
  58:	fca42e23          	sw	x10,-36(x8)
  5c:	0100006f          	j	6c <puts+0x24>
  60:	fef44783          	lbu	x15,-17(x8)
  64:	00078513          	mv	x10,x15
  68:	fa5ff0ef          	jal	x1,c <putchar>
  6c:	fdc42783          	lw	x15,-36(x8)
  70:	00178713          	addi	x14,x15,1
  74:	fce42e23          	sw	x14,-36(x8)
  78:	0007c783          	lbu	x15,0(x15)
  7c:	fef407a3          	sb	x15,-17(x8)
  80:	fef44783          	lbu	x15,-17(x8)
  84:	fc079ee3          	bnez	x15,60 <puts+0x18>
  88:	00000013          	nop
  8c:	00000013          	nop
  90:	02c12083          	lw	x1,44(x2)
  94:	02812403          	lw	x8,40(x2)
  98:	03010113          	addi	x2,x2,48
  9c:	00008067          	ret

000000a0 <print_uint>:
  a0:	fd010113          	addi	x2,x2,-48
  a4:	02112623          	sw	x1,44(x2)
  a8:	02812423          	sw	x8,40(x2)
  ac:	03010413          	addi	x8,x2,48
  b0:	fca42e23          	sw	x10,-36(x8)
  b4:	fe040793          	addi	x15,x8,-32
  b8:	fef42623          	sw	x15,-20(x8)
  bc:	fdc42783          	lw	x15,-36(x8)
  c0:	00a00593          	li	x11,10
  c4:	00078513          	mv	x10,x15
  c8:	35c000ef          	jal	x1,424 <__umodsi3>
  cc:	00050793          	mv	x15,x10
  d0:	0ff7f793          	andi	x15,x15,255
  d4:	03078793          	addi	x15,x15,48
  d8:	0ff7f713          	andi	x14,x15,255
  dc:	fec42783          	lw	x15,-20(x8)
  e0:	00e78023          	sb	x14,0(x15)
  e4:	fdc42783          	lw	x15,-36(x8)
  e8:	00a00593          	li	x11,10
  ec:	00078513          	mv	x10,x15
  f0:	2ec000ef          	jal	x1,3dc <__udivsi3>
  f4:	00050793          	mv	x15,x10
  f8:	fcf42e23          	sw	x15,-36(x8)
  fc:	fdc42783          	lw	x15,-36(x8)
 100:	00078a63          	beqz	x15,114 <print_uint+0x74>
 104:	fec42783          	lw	x15,-20(x8)
 108:	00178793          	addi	x15,x15,1
 10c:	fef42623          	sw	x15,-20(x8)
 110:	fadff06f          	j	bc <print_uint+0x1c>
 114:	00000013          	nop
 118:	01c0006f          	j	134 <print_uint+0x94>
 11c:	fec42783          	lw	x15,-20(x8)
 120:	fff78713          	addi	x14,x15,-1
 124:	fee42623          	sw	x14,-20(x8)
 128:	0007c783          	lbu	x15,0(x15)
 12c:	00078513          	mv	x10,x15
 130:	eddff0ef          	jal	x1,c <putchar>
 134:	fe040793          	addi	x15,x8,-32
 138:	fec42703          	lw	x14,-20(x8)
 13c:	fef770e3          	bgeu	x14,x15,11c <print_uint+0x7c>
 140:	00000013          	nop
 144:	00000013          	nop
 148:	02c12083          	lw	x1,44(x2)
 14c:	02812403          	lw	x8,40(x2)
 150:	03010113          	addi	x2,x2,48
 154:	00008067          	ret

00000158 <printf>:
 158:	fb010113          	addi	x2,x2,-80
 15c:	02112623          	sw	x1,44(x2)
 160:	02812423          	sw	x8,40(x2)
 164:	03010413          	addi	x8,x2,48
 168:	fca42e23          	sw	x10,-36(x8)
 16c:	00b42223          	sw	x11,4(x8)
 170:	00c42423          	sw	x12,8(x8)
 174:	00d42623          	sw	x13,12(x8)
 178:	00e42823          	sw	x14,16(x8)
 17c:	00f42a23          	sw	x15,20(x8)
 180:	01042c23          	sw	x16,24(x8)
 184:	01142e23          	sw	x17,28(x8)
 188:	02040793          	addi	x15,x8,32
 18c:	fcf42c23          	sw	x15,-40(x8)
 190:	fd842783          	lw	x15,-40(x8)
 194:	fe478793          	addi	x15,x15,-28
 198:	fef42023          	sw	x15,-32(x8)
 19c:	fdc42783          	lw	x15,-36(x8)
 1a0:	fef42623          	sw	x15,-20(x8)
 1a4:	0cc0006f          	j	270 <printf+0x118>
 1a8:	fec42783          	lw	x15,-20(x8)
 1ac:	0007c703          	lbu	x14,0(x15)
 1b0:	02500793          	li	x15,37
 1b4:	00f70c63          	beq	x14,x15,1cc <printf+0x74>
 1b8:	fec42783          	lw	x15,-20(x8)
 1bc:	0007c783          	lbu	x15,0(x15)
 1c0:	00078513          	mv	x10,x15
 1c4:	e49ff0ef          	jal	x1,c <putchar>
 1c8:	09c0006f          	j	264 <printf+0x10c>
 1cc:	fec42783          	lw	x15,-20(x8)
 1d0:	00178793          	addi	x15,x15,1
 1d4:	fef42623          	sw	x15,-20(x8)
 1d8:	fec42783          	lw	x15,-20(x8)
 1dc:	0007c783          	lbu	x15,0(x15)
 1e0:	07300713          	li	x14,115
 1e4:	04e78063          	beq	x15,x14,224 <printf+0xcc>
 1e8:	07300713          	li	x14,115
 1ec:	06f74c63          	blt	x14,x15,264 <printf+0x10c>
 1f0:	06300713          	li	x14,99
 1f4:	04e78863          	beq	x15,x14,244 <printf+0xec>
 1f8:	06400713          	li	x14,100
 1fc:	06e79463          	bne	x15,x14,264 <printf+0x10c>
 200:	fe042783          	lw	x15,-32(x8)
 204:	00478713          	addi	x14,x15,4
 208:	fee42023          	sw	x14,-32(x8)
 20c:	0007a783          	lw	x15,0(x15)
 210:	fef42223          	sw	x15,-28(x8)
 214:	fe442783          	lw	x15,-28(x8)
 218:	00078513          	mv	x10,x15
 21c:	e85ff0ef          	jal	x1,a0 <print_uint>
 220:	0440006f          	j	264 <printf+0x10c>
 224:	fe042783          	lw	x15,-32(x8)
 228:	00478713          	addi	x14,x15,4
 22c:	fee42023          	sw	x14,-32(x8)
 230:	0007a783          	lw	x15,0(x15)
 234:	fef42423          	sw	x15,-24(x8)
 238:	fe842503          	lw	x10,-24(x8)
 23c:	e0dff0ef          	jal	x1,48 <puts>
 240:	0240006f          	j	264 <printf+0x10c>
 244:	fe042783          	lw	x15,-32(x8)
 248:	00478713          	addi	x14,x15,4
 24c:	fee42023          	sw	x14,-32(x8)
 250:	0007a783          	lw	x15,0(x15)
 254:	fef42223          	sw	x15,-28(x8)
 258:	fe442503          	lw	x10,-28(x8)
 25c:	db1ff0ef          	jal	x1,c <putchar>
 260:	00000013          	nop
 264:	fec42783          	lw	x15,-20(x8)
 268:	00178793          	addi	x15,x15,1
 26c:	fef42623          	sw	x15,-20(x8)
 270:	fec42783          	lw	x15,-20(x8)
 274:	0007c783          	lbu	x15,0(x15)
 278:	f20798e3          	bnez	x15,1a8 <printf+0x50>
 27c:	00000013          	nop
 280:	00000013          	nop
 284:	02c12083          	lw	x1,44(x2)
 288:	02812403          	lw	x8,40(x2)
 28c:	05010113          	addi	x2,x2,80
 290:	00008067          	ret

00000294 <malloc>:
 294:	fd010113          	addi	x2,x2,-48
 298:	02812623          	sw	x8,44(x2)
 29c:	03010413          	addi	x8,x2,48
 2a0:	fca42e23          	sw	x10,-36(x8)
 2a4:	51c00713          	li	x14,1308
 2a8:	49802783          	lw	x15,1176(x0) # 498 <allocp>
 2ac:	40f707b3          	sub	x15,x14,x15
 2b0:	fdc42703          	lw	x14,-36(x8)
 2b4:	02e7c263          	blt	x15,x14,2d8 <malloc+0x44>
 2b8:	49802783          	lw	x15,1176(x0) # 498 <allocp>
 2bc:	fef42623          	sw	x15,-20(x8)
 2c0:	49802703          	lw	x14,1176(x0) # 498 <allocp>
 2c4:	fdc42783          	lw	x15,-36(x8)
 2c8:	00f70733          	add	x14,x14,x15
 2cc:	48e02c23          	sw	x14,1176(x0) # 498 <allocp>
 2d0:	fec42783          	lw	x15,-20(x8)
 2d4:	0080006f          	j	2dc <malloc+0x48>
 2d8:	00000793          	li	x15,0
 2dc:	00078513          	mv	x10,x15
 2e0:	02c12403          	lw	x8,44(x2)
 2e4:	03010113          	addi	x2,x2,48
 2e8:	00008067          	ret

000002ec <time>:
 2ec:	ff010113          	addi	x2,x2,-16
 2f0:	00812623          	sw	x8,12(x2)
 2f4:	01010413          	addi	x8,x2,16
 2f8:	49402783          	lw	x15,1172(x0) # 494 <ms_count_reg>
 2fc:	0007a783          	lw	x15,0(x15)
 300:	00078513          	mv	x10,x15
 304:	00c12403          	lw	x8,12(x2)
 308:	01010113          	addi	x2,x2,16
 30c:	00008067          	ret

00000310 <sleep>:
 310:	fd010113          	addi	x2,x2,-48
 314:	02112623          	sw	x1,44(x2)
 318:	02812423          	sw	x8,40(x2)
 31c:	03010413          	addi	x8,x2,48
 320:	fca42e23          	sw	x10,-36(x8)
 324:	fc9ff0ef          	jal	x1,2ec <time>
 328:	fea42623          	sw	x10,-20(x8)
 32c:	00000013          	nop
 330:	fbdff0ef          	jal	x1,2ec <time>
 334:	00050713          	mv	x14,x10
 338:	fec42783          	lw	x15,-20(x8)
 33c:	40f707b3          	sub	x15,x14,x15
 340:	fdc42703          	lw	x14,-36(x8)
 344:	fee7e6e3          	bltu	x15,x14,330 <sleep+0x20>
 348:	00000013          	nop
 34c:	00000013          	nop
 350:	02c12083          	lw	x1,44(x2)
 354:	02812403          	lw	x8,40(x2)
 358:	03010113          	addi	x2,x2,48
 35c:	00008067          	ret

00000360 <main>:
 360:	ff010113          	addi	x2,x2,-16
 364:	00112623          	sw	x1,12(x2)
 368:	00812423          	sw	x8,8(x2)
 36c:	01010413          	addi	x8,x2,16
 370:	f7dff0ef          	jal	x1,2ec <time>
 374:	00050793          	mv	x15,x10
 378:	00078593          	mv	x11,x15
 37c:	48800513          	li	x10,1160
 380:	dd9ff0ef          	jal	x1,158 <printf>
 384:	00a00513          	li	x10,10
 388:	f89ff0ef          	jal	x1,310 <sleep>
 38c:	f61ff0ef          	jal	x1,2ec <time>
 390:	00050793          	mv	x15,x10
 394:	00078593          	mv	x11,x15
 398:	48800513          	li	x10,1160
 39c:	dbdff0ef          	jal	x1,158 <printf>
 3a0:	00a00513          	li	x10,10
 3a4:	f6dff0ef          	jal	x1,310 <sleep>
 3a8:	f45ff0ef          	jal	x1,2ec <time>
 3ac:	00050793          	mv	x15,x10
 3b0:	00078593          	mv	x11,x15
 3b4:	48c00513          	li	x10,1164
 3b8:	da1ff0ef          	jal	x1,158 <printf>
 3bc:	00000793          	li	x15,0
 3c0:	00078513          	mv	x10,x15
 3c4:	00c12083          	lw	x1,12(x2)
 3c8:	00812403          	lw	x8,8(x2)
 3cc:	01010113          	addi	x2,x2,16
 3d0:	00008067          	ret

000003d4 <__divsi3>:
 3d4:	06054063          	bltz	x10,434 <__umodsi3+0x10>
 3d8:	0605c663          	bltz	x11,444 <__umodsi3+0x20>

000003dc <__udivsi3>:
 3dc:	00058613          	mv	x12,x11
 3e0:	00050593          	mv	x11,x10
 3e4:	fff00513          	li	x10,-1
 3e8:	02060c63          	beqz	x12,420 <__udivsi3+0x44>
 3ec:	00100693          	li	x13,1
 3f0:	00b67a63          	bgeu	x12,x11,404 <__udivsi3+0x28>
 3f4:	00c05863          	blez	x12,404 <__udivsi3+0x28>
 3f8:	00161613          	slli	x12,x12,0x1
 3fc:	00169693          	slli	x13,x13,0x1
 400:	feb66ae3          	bltu	x12,x11,3f4 <__udivsi3+0x18>
 404:	00000513          	li	x10,0
 408:	00c5e663          	bltu	x11,x12,414 <__udivsi3+0x38>
 40c:	40c585b3          	sub	x11,x11,x12
 410:	00d56533          	or	x10,x10,x13
 414:	0016d693          	srli	x13,x13,0x1
 418:	00165613          	srli	x12,x12,0x1
 41c:	fe0696e3          	bnez	x13,408 <__udivsi3+0x2c>
 420:	00008067          	ret

00000424 <__umodsi3>:
 424:	00008293          	mv	x5,x1
 428:	fb5ff0ef          	jal	x1,3dc <__udivsi3>
 42c:	00058513          	mv	x10,x11
 430:	00028067          	jr	x5
 434:	40a00533          	neg	x10,x10
 438:	00b04863          	bgtz	x11,448 <__umodsi3+0x24>
 43c:	40b005b3          	neg	x11,x11
 440:	f9dff06f          	j	3dc <__udivsi3>
 444:	40b005b3          	neg	x11,x11
 448:	00008293          	mv	x5,x1
 44c:	f91ff0ef          	jal	x1,3dc <__udivsi3>
 450:	40a00533          	neg	x10,x10
 454:	00028067          	jr	x5

00000458 <__modsi3>:
 458:	00008293          	mv	x5,x1
 45c:	0005ca63          	bltz	x11,470 <__modsi3+0x18>
 460:	00054c63          	bltz	x10,478 <__modsi3+0x20>
 464:	f79ff0ef          	jal	x1,3dc <__udivsi3>
 468:	00058513          	mv	x10,x11
 46c:	00028067          	jr	x5
 470:	40b005b3          	neg	x11,x11
 474:	fe0558e3          	bgez	x10,464 <__modsi3+0xc>
 478:	40a00533          	neg	x10,x10
 47c:	f61ff0ef          	jal	x1,3dc <__udivsi3>
 480:	40b00533          	neg	x10,x11
 484:	00028067          	jr	x5
