
hello.elf:     file format elf32-littleriscv


Disassembly of section .text:

00000000 <_start>:
   0:	7fc00113          	li	x2,2044
   4:	09c000ef          	jal	x1,a0 <main>
   8:	00100073          	ebreak

0000000c <putchar>:
   c:	fe010113          	addi	x2,x2,-32
  10:	00812e23          	sw	x8,28(x2)
  14:	02010413          	addi	x8,x2,32
  18:	fea42623          	sw	x10,-20(x8)
  1c:	00000013          	nop
  20:	0e002783          	lw	x15,224(x0) # e0 <uart_write_reg>
  24:	0007a783          	lw	x15,0(x15)
  28:	fe079ce3          	bnez	x15,20 <putchar+0x14>
  2c:	0e002783          	lw	x15,224(x0) # e0 <uart_write_reg>
  30:	fec42703          	lw	x14,-20(x8)
  34:	00e7a023          	sw	x14,0(x15)
  38:	00000013          	nop
  3c:	01c12403          	lw	x8,28(x2)
  40:	02010113          	addi	x2,x2,32
  44:	00008067          	ret

00000048 <puts>:
  48:	fd010113          	addi	x2,x2,-48
  4c:	02112623          	sw	x1,44(x2)
  50:	02812423          	sw	x8,40(x2)
  54:	03010413          	addi	x8,x2,48
  58:	fca42e23          	sw	x10,-36(x8)
  5c:	0100006f          	j	6c <puts+0x24>
  60:	fef44783          	lbu	x15,-17(x8)
  64:	00078513          	mv	x10,x15
  68:	fa5ff0ef          	jal	x1,c <putchar>
  6c:	fdc42783          	lw	x15,-36(x8)
  70:	00178713          	addi	x14,x15,1
  74:	fce42e23          	sw	x14,-36(x8)
  78:	0007c783          	lbu	x15,0(x15)
  7c:	fef407a3          	sb	x15,-17(x8)
  80:	fef44783          	lbu	x15,-17(x8)
  84:	fc079ee3          	bnez	x15,60 <puts+0x18>
  88:	00000013          	nop
  8c:	00000013          	nop
  90:	02c12083          	lw	x1,44(x2)
  94:	02812403          	lw	x8,40(x2)
  98:	03010113          	addi	x2,x2,48
  9c:	00008067          	ret

000000a0 <main>:
  a0:	ff010113          	addi	x2,x2,-16
  a4:	00112623          	sw	x1,12(x2)
  a8:	00812423          	sw	x8,8(x2)
  ac:	01010413          	addi	x8,x2,16
  b0:	0d000513          	li	x10,208
  b4:	f95ff0ef          	jal	x1,48 <puts>
  b8:	00000793          	li	x15,0
  bc:	00078513          	mv	x10,x15
  c0:	00c12083          	lw	x1,12(x2)
  c4:	00812403          	lw	x8,8(x2)
  c8:	01010113          	addi	x2,x2,16
  cc:	00008067          	ret
